; Function Attrs: nounwind uwtable
define void @Gia_ManCountMuxXor(ptr noundef readonly captures(none) %0, ptr noundef captures(none) initializes((0, 4)) %1, ptr noundef captures(none) initializes((0, 4)) %2) local_unnamed_addr #0 {
  %4 = alloca ptr, align 8
  %5 = alloca ptr, align 8
  store i32 0, ptr %2, align 4
  store i32 0, ptr %1, align 4
  %6 = getelementptr i8, ptr %0, i64 32
  %7 = getelementptr inbounds nuw i8, ptr %0, i64 24
  %8 = load i32, ptr %7, align 8
  %9 = icmp sgt i32 %8, 0
  br i1 %9, label %.lr.ph, label %.critedge

.lr.ph:                                           ; preds = %3, %20
  %indvars.iv = phi i64 [ %indvars.iv.next, %20 ], [ 0, %3 ]
  %.val = load ptr, ptr %6, align 8
  %10 = getelementptr inbounds nuw %struct.Gia_Obj_t_, ptr %.val, i64 %indvars.iv
  %.not = icmp eq ptr %.val, null
  br i1 %.not, label %.critedge, label %11

11:                                               ; preds = %.lr.ph
  %.val15 = load i64, ptr %10, align 4
  %12 = and i64 %.val15, 2147483648
  %.not.i = icmp ne i64 %12, 0
  %13 = and i64 %.val15, 536870911
  %14 = icmp eq i64 %13, 536870911
  %narrow.i.not = or i1 %.not.i, %14
  br i1 %narrow.i.not, label %20, label %15

15:                                               ; preds = %11
  %16 = call i32 @Gia_ObjIsMuxType(ptr noundef nonnull %10) #26
  %.not13 = icmp eq i32 %16, 0
  br i1 %.not13, label %20, label %.sink.split

.sink.split:                                      ; preds = %15
  %17 = call i32 @Gia_ObjRecognizeExor(ptr noundef nonnull %10, ptr noundef nonnull %4, ptr noundef nonnull %5) #26
  %.not14 = icmp eq i32 %17, 0
  %. = select i1 %.not14, ptr %1, ptr %2
  %18 = load i32, ptr %., align 4
  %19 = add nsw i32 %18, 1
  store i32 %19, ptr %., align 4
  br label %20

20:                                               ; preds = %.sink.split, %11, %15
  %indvars.iv.next = add nuw nsw i64 %indvars.iv, 1
  %21 = load i32, ptr %7, align 8
  %22 = sext i32 %21 to i64
  %23 = icmp slt i64 %indvars.iv.next, %22
  br i1 %23, label %.lr.ph, label %.critedge, !llvm.loop !4

.critedge:                                        ; preds = %.lr.ph, %20, %3
  ret void
}